target datalayout = "e-m:e-p270:32:32-p271:32:32-p272:64:64-i64:64-i128:128-f80:128-n8:16:32:64-S128"
target triple = "x86_64-pc-linux-gnu"

%struct.AVCodecTag = type { i32, i32 }
%struct.AVProbeData = type { ptr, ptr, i32, ptr }
%struct.AVRational = type { i32, i32 }
%struct.AVFormatContext = type { ptr, ptr, ptr, ptr, ptr, i32, i32, ptr, i32, ptr, i32, ptr, ptr, i64, i64, i64, i32, i32, i32, i64, i64, ptr, i32, i32, ptr, i32, i32, i32, i32, ptr, i64, i32, i32, %struct.AVIOInterruptCB, i32, i32, i32, i32, i64, i32, i32, i32, i32, i32, i32, i32, i32, i32, i32, i32, i32, i64, i32, i32, i32, i32, i32, ptr, ptr, ptr, ptr, i32, ptr, ptr, ptr, ptr, i32, ptr, ptr, i64, ptr, ptr, ptr, i64 }
%struct.AVIOInterruptCB = type { ptr, ptr }
%struct.AVStream = type { ptr, i32, i32, ptr, ptr, %struct.AVRational, i64, i64, i64, i32, i32, %struct.AVRational, ptr, %struct.AVRational, %struct.AVPacket, i32, %struct.AVRational, i32 }
%struct.AVPacket = type { ptr, i64, i64, ptr, i32, i32, i32, ptr, i32, i64, i64, ptr, ptr, %struct.AVRational }
%struct.AVCodecParameters = type { i32, i32, i32, ptr, i32, ptr, i32, i32, i64, i32, i32, i32, i32, i32, i32, %struct.AVRational, %struct.AVRational, i32, i32, i32, i32, i32, i32, i32, %struct.AVChannelLayout, i32, i32, i32, i32, i32, i32 }
%struct.AVChannelLayout = type { i32, i32, %union.anon, ptr }
%union.anon = type { i64 }
%struct.FFStream = type { %struct.AVStream, ptr, i32, ptr, i32, ptr, i32, %struct.anon, i32, i32, %struct.FFFrac, ptr, ptr, i32, i32, i64, i64, i32, i32, i32, i64, i64, i64, i32, i64, i64, i64, i32, i32, [17 x i64], [17 x i8], [17 x i64], i64, i8, i8, %struct.AVRational, %struct.AVProbeData, ptr, i64, i32, i32, i32, ptr, i32, i32, i64, i64, ptr, %struct.AVRational }
%struct.anon = type { ptr, i32 }
%struct.FFFrac = type { i64, i64, i64 }

@ff_codec_bmp_tags = external constant [0 x %struct.AVCodecTag], align 4
@.str.2 = private unnamed_addr constant [20 x i8] c"Invalid frame rate\0A\00", align 1

; Function Attrs: alwaysinline nounwind uwtable
define internal ptr @ffstream(ptr noundef %0) #3 {
  %2 = alloca ptr, align 8
  store ptr %0, ptr %2, align 8, !tbaa !31
  %3 = load ptr, ptr %2, align 8, !tbaa !31
  ret ptr %3
}

; Function Attrs: nounwind uwtable
define internal i32 @read_header(ptr noundef %0) #0 {
  %2 = alloca i32, align 4
  %3 = alloca ptr, align 8
  %4 = alloca ptr, align 8
  %5 = alloca %struct.AVRational, align 4
  %6 = alloca i32, align 4
  store ptr %0, ptr %3, align 8, !tbaa !14
  call void @llvm.lifetime.start.p0(i64 8, ptr %4) #4
  call void @llvm.lifetime.start.p0(i64 8, ptr %5) #4
  %7 = load ptr, ptr %3, align 8, !tbaa !14
  %8 = getelementptr inbounds nuw %struct.AVFormatContext, ptr %7, i32 0, i32 4
  %9 = load ptr, ptr %8, align 8, !tbaa !16
  %10 = call i32 @avio_rl32(ptr noundef %9)
  %11 = load ptr, ptr %3, align 8, !tbaa !14
  %12 = getelementptr inbounds nuw %struct.AVFormatContext, ptr %11, i32 0, i32 4
  %13 = load ptr, ptr %12, align 8, !tbaa !16
  %14 = call i32 @avio_rl16(ptr noundef %13)
  %15 = load ptr, ptr %3, align 8, !tbaa !14
  %16 = getelementptr inbounds nuw %struct.AVFormatContext, ptr %15, i32 0, i32 4
  %17 = load ptr, ptr %16, align 8, !tbaa !16
  %18 = call i32 @avio_rl16(ptr noundef %17)
  %19 = load ptr, ptr %3, align 8, !tbaa !14
  %20 = call ptr @avformat_new_stream(ptr noundef %19, ptr noundef null)
  store ptr %20, ptr %4, align 8, !tbaa !31
  %21 = load ptr, ptr %4, align 8, !tbaa !31
  %22 = icmp ne ptr %21, null
  br i1 %22, label %24, label %23

23:                                               ; preds = %1
  store i32 -12, ptr %2, align 4
  store i32 1, ptr %6, align 4
  br label %107

24:                                               ; preds = %1
  %25 = load ptr, ptr %4, align 8, !tbaa !31
  %26 = getelementptr inbounds nuw %struct.AVStream, ptr %25, i32 0, i32 3
  %27 = load ptr, ptr %26, align 8, !tbaa !33
  %28 = getelementptr inbounds nuw %struct.AVCodecParameters, ptr %27, i32 0, i32 0
  store i32 0, ptr %28, align 8, !tbaa !40
  %29 = load ptr, ptr %3, align 8, !tbaa !14
  %30 = getelementptr inbounds nuw %struct.AVFormatContext, ptr %29, i32 0, i32 4
  %31 = load ptr, ptr %30, align 8, !tbaa !16
  %32 = call i32 @avio_rl32(ptr noundef %31)
  %33 = load ptr, ptr %4, align 8, !tbaa !31
  %34 = getelementptr inbounds nuw %struct.AVStream, ptr %33, i32 0, i32 3
  %35 = load ptr, ptr %34, align 8, !tbaa !33
  %36 = getelementptr inbounds nuw %struct.AVCodecParameters, ptr %35, i32 0, i32 2
  store i32 %32, ptr %36, align 8, !tbaa !43
  %37 = load ptr, ptr %4, align 8, !tbaa !31
  %38 = getelementptr inbounds nuw %struct.AVStream, ptr %37, i32 0, i32 3
  %39 = load ptr, ptr %38, align 8, !tbaa !33
  %40 = getelementptr inbounds nuw %struct.AVCodecParameters, ptr %39, i32 0, i32 2
  %41 = load i32, ptr %40, align 8, !tbaa !43
  %42 = call i32 @ff_codec_get_id(ptr noundef @ff_codec_bmp_tags, i32 noundef %41)
  %43 = load ptr, ptr %4, align 8, !tbaa !31
  %44 = getelementptr inbounds nuw %struct.AVStream, ptr %43, i32 0, i32 3
  %45 = load ptr, ptr %44, align 8, !tbaa !33
  %46 = getelementptr inbounds nuw %struct.AVCodecParameters, ptr %45, i32 0, i32 1
  store i32 %42, ptr %46, align 4, !tbaa !44
  %47 = load ptr, ptr %3, align 8, !tbaa !14
  %48 = getelementptr inbounds nuw %struct.AVFormatContext, ptr %47, i32 0, i32 4
  %49 = load ptr, ptr %48, align 8, !tbaa !16
  %50 = call i32 @avio_rl16(ptr noundef %49)
  %51 = load ptr, ptr %4, align 8, !tbaa !31
  %52 = getelementptr inbounds nuw %struct.AVStream, ptr %51, i32 0, i32 3
  %53 = load ptr, ptr %52, align 8, !tbaa !33
  %54 = getelementptr inbounds nuw %struct.AVCodecParameters, ptr %53, i32 0, i32 13
  store i32 %50, ptr %54, align 8, !tbaa !45
  %55 = load ptr, ptr %3, align 8, !tbaa !14
  %56 = getelementptr inbounds nuw %struct.AVFormatContext, ptr %55, i32 0, i32 4
  %57 = load ptr, ptr %56, align 8, !tbaa !16
  %58 = call i32 @avio_rl16(ptr noundef %57)
  %59 = load ptr, ptr %4, align 8, !tbaa !31
  %60 = getelementptr inbounds nuw %struct.AVStream, ptr %59, i32 0, i32 3
  %61 = load ptr, ptr %60, align 8, !tbaa !33
  %62 = getelementptr inbounds nuw %struct.AVCodecParameters, ptr %61, i32 0, i32 14
  store i32 %58, ptr %62, align 4, !tbaa !46
  %63 = load ptr, ptr %3, align 8, !tbaa !14
  %64 = getelementptr inbounds nuw %struct.AVFormatContext, ptr %63, i32 0, i32 4
  %65 = load ptr, ptr %64, align 8, !tbaa !16
  %66 = call i32 @avio_rl32(ptr noundef %65)
  %67 = getelementptr inbounds nuw %struct.AVRational, ptr %5, i32 0, i32 1
  store i32 %66, ptr %67, align 4, !tbaa !47
  %68 = load ptr, ptr %3, align 8, !tbaa !14
  %69 = getelementptr inbounds nuw %struct.AVFormatContext, ptr %68, i32 0, i32 4
  %70 = load ptr, ptr %69, align 8, !tbaa !16
  %71 = call i32 @avio_rl32(ptr noundef %70)
  %72 = getelementptr inbounds nuw %struct.AVRational, ptr %5, i32 0, i32 0
  store i32 %71, ptr %72, align 4, !tbaa !48
  %73 = load ptr, ptr %3, align 8, !tbaa !14
  %74 = getelementptr inbounds nuw %struct.AVFormatContext, ptr %73, i32 0, i32 4
  %75 = load ptr, ptr %74, align 8, !tbaa !16
  %76 = call i32 @avio_rl32(ptr noundef %75)
  %77 = zext i32 %76 to i64
  %78 = load ptr, ptr %4, align 8, !tbaa !31
  %79 = getelementptr inbounds nuw %struct.AVStream, ptr %78, i32 0, i32 8
  store i64 %77, ptr %79, align 8, !tbaa !49
  %80 = load ptr, ptr %3, align 8, !tbaa !14
  %81 = getelementptr inbounds nuw %struct.AVFormatContext, ptr %80, i32 0, i32 4
  %82 = load ptr, ptr %81, align 8, !tbaa !16
  %83 = call i64 @avio_skip(ptr noundef %82, i64 noundef 4)
  %84 = load ptr, ptr %4, align 8, !tbaa !31
  %85 = getelementptr inbounds nuw %struct.AVStream, ptr %84, i32 0, i32 8
  %86 = load i64, ptr %85, align 8, !tbaa !49
  %87 = load ptr, ptr %4, align 8, !tbaa !31
  %88 = getelementptr inbounds nuw %struct.AVStream, ptr %87, i32 0, i32 7
  store i64 %86, ptr %88, align 8, !tbaa !50
  %89 = load ptr, ptr %4, align 8, !tbaa !31
  %90 = call ptr @ffstream(ptr noundef %89)
  %91 = getelementptr inbounds nuw %struct.FFStream, ptr %90, i32 0, i32 41
  store i32 2, ptr %91, align 8, !tbaa !51
  %92 = getelementptr inbounds nuw %struct.AVRational, ptr %5, i32 0, i32 1
  %93 = load i32, ptr %92, align 4, !tbaa !47
  %94 = icmp ne i32 %93, 0
  br i1 %94, label %95, label %99

95:                                               ; preds = %24
  %96 = getelementptr inbounds nuw %struct.AVRational, ptr %5, i32 0, i32 0
  %97 = load i32, ptr %96, align 4, !tbaa !48
  %98 = icmp ne i32 %97, 0
  br i1 %98, label %101, label %99

99:                                               ; preds = %95, %24
  %100 = load ptr, ptr %3, align 8, !tbaa !14
  call void (ptr, i32, ptr, ...) @av_log(ptr noundef %100, i32 noundef 16, ptr noundef @.str.2)
  store i32 -1094995529, ptr %2, align 4
  store i32 1, ptr %6, align 4
  br label %107

101:                                              ; preds = %95
  %102 = load ptr, ptr %4, align 8, !tbaa !31
  %103 = getelementptr inbounds nuw %struct.AVRational, ptr %5, i32 0, i32 0
  %104 = load i32, ptr %103, align 4, !tbaa !48
  %105 = getelementptr inbounds nuw %struct.AVRational, ptr %5, i32 0, i32 1
  %106 = load i32, ptr %105, align 4, !tbaa !47
  call void @avpriv_set_pts_info(ptr noundef %102, i32 noundef 64, i32 noundef %104, i32 noundef %106)
  store i32 0, ptr %2, align 4
  store i32 1, ptr %6, align 4
  br label %107

107:                                              ; preds = %101, %99, %23
  call void @llvm.lifetime.end.p0(i64 8, ptr %5) #4
  call void @llvm.lifetime.end.p0(i64 8, ptr %4) #4
  %108 = load i32, ptr %2, align 4
  ret i32 %108
}