; Function Attrs: nounwind uwtable
define internal range(i32 -1094995529, 1) i32 @read_header(ptr noundef %0) #1 {
  %2 = getelementptr inbounds nuw i8, ptr %0, i64 32
  %3 = load ptr, ptr %2, align 8, !tbaa !12
  %4 = tail call i32 @avio_rl32(ptr noundef %3) #3
  %5 = load ptr, ptr %2, align 8, !tbaa !12
  %6 = tail call i32 @avio_rl16(ptr noundef %5) #3
  %7 = load ptr, ptr %2, align 8, !tbaa !12
  %8 = tail call i32 @avio_rl16(ptr noundef %7) #3
  %9 = tail call ptr @avformat_new_stream(ptr noundef %0, ptr noundef null) #3
  %.not = icmp eq ptr %9, null
  br i1 %.not, label %45, label %10

10:                                               ; preds = %1
  %11 = getelementptr inbounds nuw i8, ptr %9, i64 16
  %12 = load ptr, ptr %11, align 8, !tbaa !27
  store i32 0, ptr %12, align 8, !tbaa !34
  %13 = load ptr, ptr %2, align 8, !tbaa !12
  %14 = tail call i32 @avio_rl32(ptr noundef %13) #3
  %15 = load ptr, ptr %11, align 8, !tbaa !27
  %16 = getelementptr inbounds nuw i8, ptr %15, i64 8
  store i32 %14, ptr %16, align 8, !tbaa !37
  %17 = tail call i32 @ff_codec_get_id(ptr noundef nonnull @ff_codec_bmp_tags, i32 noundef %14) #3
  %18 = load ptr, ptr %11, align 8, !tbaa !27
  %19 = getelementptr inbounds nuw i8, ptr %18, i64 4
  store i32 %17, ptr %19, align 4, !tbaa !38
  %20 = load ptr, ptr %2, align 8, !tbaa !12
  %21 = tail call i32 @avio_rl16(ptr noundef %20) #3
  %22 = load ptr, ptr %11, align 8, !tbaa !27
  %23 = getelementptr inbounds nuw i8, ptr %22, i64 72
  store i32 %21, ptr %23, align 8, !tbaa !39
  %24 = load ptr, ptr %2, align 8, !tbaa !12
  %25 = tail call i32 @avio_rl16(ptr noundef %24) #3
  %26 = load ptr, ptr %11, align 8, !tbaa !27
  %27 = getelementptr inbounds nuw i8, ptr %26, i64 76
  store i32 %25, ptr %27, align 4, !tbaa !40
  %28 = load ptr, ptr %2, align 8, !tbaa !12
  %29 = tail call i32 @avio_rl32(ptr noundef %28) #3
  %30 = load ptr, ptr %2, align 8, !tbaa !12
  %31 = tail call i32 @avio_rl32(ptr noundef %30) #3
  %32 = load ptr, ptr %2, align 8, !tbaa !12
  %33 = tail call i32 @avio_rl32(ptr noundef %32) #3
  %34 = zext i32 %33 to i64
  %35 = getelementptr inbounds nuw i8, ptr %9, i64 56
  store i64 %34, ptr %35, align 8, !tbaa !41
  %36 = load ptr, ptr %2, align 8, !tbaa !12
  %37 = tail call i64 @avio_skip(ptr noundef %36, i64 noundef 4) #3
  %38 = load i64, ptr %35, align 8, !tbaa !41
  %39 = getelementptr inbounds nuw i8, ptr %9, i64 48
  store i64 %38, ptr %39, align 8, !tbaa !42
  %40 = getelementptr inbounds nuw i8, ptr %9, i64 808
  store i32 2, ptr %40, align 8, !tbaa !43
  %41 = icmp ne i32 %29, 0
  %42 = icmp ne i32 %31, 0
  %or.cond = select i1 %41, i1 %42, i1 false
  br i1 %or.cond, label %44, label %43

43:                                               ; preds = %10
  tail call void (ptr, i32, ptr, ...) @av_log(ptr noundef nonnull %0, i32 noundef 16, ptr noundef nonnull @.str.2) #3
  br label %45

44:                                               ; preds = %10
  tail call void @avpriv_set_pts_info(ptr noundef nonnull %9, i32 noundef 64, i32 noundef %31, i32 noundef %29) #3
  br label %45

45:                                               ; preds = %1, %44, %43
  %.0 = phi i32 [ 0, %44 ], [ -1094995529, %43 ], [ -12, %1 ]
  ret i32 %.0
}